target datalayout = "e-m:e-p270:32:32-p271:32:32-p272:64:64-i64:64-i128:128-f80:128-n8:16:32:64-S128"
target triple = "x86_64-unknown-linux-gnu"

%struct.UStringSearch = type { ptr, %struct.UPattern, ptr, ptr, ptr, ptr, ptr, i8, i32, i32, i32, i8 }
%struct.UPattern = type { ptr, i32, i32, ptr, [256 x i32], i32, ptr, [256 x i64], i8, i8 }
%struct.USearch = type { ptr, i32, i8, i8, i16, ptr, ptr, i32, i32, i8, i8 }

; Function Attrs: mustprogress nounwind uwtable
define internal noundef signext i8 @_ZL13isOutOfBoundsii(i32 noundef %textlength, i32 noundef %offset) #1 {
entry:
  %textlength.addr = alloca i32, align 4
  %offset.addr = alloca i32, align 4
  store i32 %textlength, ptr %textlength.addr, align 4
  store i32 %offset, ptr %offset.addr, align 4
  %0 = load i32, ptr %offset.addr, align 4
  %cmp = icmp slt i32 %0, 0
  br i1 %cmp, label %lor.end, label %lor.rhs

lor.rhs:                                          ; preds = %entry
  %1 = load i32, ptr %offset.addr, align 4
  %2 = load i32, ptr %textlength.addr, align 4
  %cmp1 = icmp sgt i32 %1, %2
  br label %lor.end

lor.end:                                          ; preds = %lor.rhs, %entry
  %3 = phi i1 [ true, %entry ], [ %cmp1, %lor.rhs ]
  %conv = zext i1 %3 to i8
  ret i8 %conv
}

; Function Attrs: mustprogress uwtable
define i32 @usearch_getOffset_75(ptr noundef %strsrch) #0 {
entry:
  %retval = alloca i32, align 4
  %strsrch.addr = alloca ptr, align 8
  %result = alloca i32, align 4
  store ptr %strsrch, ptr %strsrch.addr, align 8
  %0 = load ptr, ptr %strsrch.addr, align 8
  %tobool = icmp ne ptr %0, null
  br i1 %tobool, label %if.then, label %if.end4

if.then:                                          ; preds = %entry
  %1 = load ptr, ptr %strsrch.addr, align 8
  %textIter = getelementptr inbounds %struct.UStringSearch, ptr %1, i32 0, i32 4
  %2 = load ptr, ptr %textIter, align 8
  %call = call i32 @ucol_getOffset_75(ptr noundef %2)
  store i32 %call, ptr %result, align 4
  %3 = load ptr, ptr %strsrch.addr, align 8
  %search = getelementptr inbounds %struct.UStringSearch, ptr %3, i32 0, i32 0
  %4 = load ptr, ptr %search, align 8
  %textLength = getelementptr inbounds %struct.USearch, ptr %4, i32 0, i32 1
  %5 = load i32, ptr %textLength, align 8
  %6 = load i32, ptr %result, align 4
  %call1 = call noundef signext i8 @_ZL13isOutOfBoundsii(i32 noundef %5, i32 noundef %6)
  %tobool2 = icmp ne i8 %call1, 0
  br i1 %tobool2, label %if.then3, label %if.end

if.then3:                                         ; preds = %if.then
  store i32 -1, ptr %retval, align 4
  br label %return

if.end:                                           ; preds = %if.then
  %7 = load i32, ptr %result, align 4
  store i32 %7, ptr %retval, align 4
  br label %return

if.end4:                                          ; preds = %entry
  store i32 -1, ptr %retval, align 4
  br label %return

return:                                           ; preds = %if.end4, %if.end, %if.then3
  %8 = load i32, ptr %retval, align 4
  ret i32 %8
}