; Function Attrs: mustprogress uwtable
define i32 @usearch_getOffset_75(ptr noundef readonly %strsrch) local_unnamed_addr #0 {
entry:
  %tobool.not = icmp eq ptr %strsrch, null
  br i1 %tobool.not, label %return, label %if.then

if.then:                                          ; preds = %entry
  %textIter = getelementptr inbounds i8, ptr %strsrch, i64 3144
  %0 = load ptr, ptr %textIter, align 8
  %call = tail call i32 @ucol_getOffset_75(ptr noundef %0)
  %1 = load ptr, ptr %strsrch, align 8
  %textLength = getelementptr inbounds i8, ptr %1, i64 8
  %2 = load i32, ptr %textLength, align 8
  %cmp1.i.not = icmp sgt i32 %call, %2
  %3 = tail call i32 @llvm.smax.i32(i32 %call, i32 -1)
  %call. = select i1 %cmp1.i.not, i32 -1, i32 %3
  br label %return

return:                                           ; preds = %entry, %if.then
  %retval.0 = phi i32 [ %call., %if.then ], [ -1, %entry ]
  ret i32 %retval.0
}